; Function Attrs: nounwind uwtable
define dso_local i32 @SPI_execute_plan_extended(ptr noundef readonly captures(address_is_null) %0, ptr noundef readonly captures(address_is_null) %1) local_unnamed_addr #0 {
  %3 = icmp eq ptr %0, null
  br i1 %3, label %_SPI_begin_call.exit, label %4

4:                                                ; preds = %2
  %5 = load i32, ptr %0, align 8
  %6 = icmp ne i32 %5, 569278163
  %7 = icmp eq ptr %1, null
  %or.cond = or i1 %7, %6
  br i1 %or.cond, label %_SPI_begin_call.exit, label %8

8:                                                ; preds = %4
  %9 = load ptr, ptr @_SPI_current, align 8
  %.not = icmp eq ptr %9, null
  br i1 %.not, label %_SPI_begin_call.exit, label %_SPI_begin_call.exit.thread

_SPI_begin_call.exit.thread:                      ; preds = %8
  %10 = tail call i32 @GetCurrentSubTransactionId() #15
  %11 = load ptr, ptr @_SPI_current, align 8
  %12 = getelementptr inbounds nuw i8, ptr %11, i64 16
  store i32 %10, ptr %12, align 8
  %13 = getelementptr inbounds nuw i8, ptr %11, i64 40
  %14 = load ptr, ptr %13, align 8
  store ptr %14, ptr @CurrentMemoryContext, align 8
  %15 = tail call fastcc i32 @_SPI_execute_plan(ptr noundef %0, ptr noundef %1, ptr noundef null, ptr noundef null, i1 noundef zeroext true)
  %16 = load ptr, ptr @_SPI_current, align 8
  %17 = getelementptr inbounds nuw i8, ptr %16, i64 32
  %18 = load ptr, ptr %17, align 8
  store ptr %18, ptr @CurrentMemoryContext, align 8
  %19 = getelementptr inbounds nuw i8, ptr %16, i64 16
  store i32 0, ptr %19, align 8
  %20 = getelementptr inbounds nuw i8, ptr %16, i64 40
  %21 = load ptr, ptr %20, align 8
  tail call void @MemoryContextReset(ptr noundef %21) #15
  br label %_SPI_begin_call.exit

_SPI_begin_call.exit:                             ; preds = %8, %2, %4, %_SPI_begin_call.exit.thread
  %.0 = phi i32 [ %15, %_SPI_begin_call.exit.thread ], [ -6, %4 ], [ -6, %2 ], [ -4, %8 ]
  ret i32 %.0
}